; ModuleID = '54/309.c'
source_filename = "54/309.c"
target datalayout = "e-m:e-p270:32:32-p271:32:32-p272:64:64-i64:64-f80:128-n8:16:32:64-S128"
target triple = "x86_64-pc-linux-gnu"

@.str = private unnamed_addr constant [5 x i8] c"%d%d\00", align 1
@.str.1 = private unnamed_addr constant [4 x i8] c"%d\0A\00", align 1

; Function Attrs: noinline nounwind uwtable
define dso_local void @main() #0 {
  %1 = alloca i32, align 4
  %2 = alloca i32, align 4
  %3 = alloca i32, align 4
  %4 = alloca i32, align 4
  %5 = alloca i32, align 4
  store i32 1, i32* %4, align 4
  store i32 1, i32* %5, align 4
  %6 = call i32 (i8*, ...) @__isoc99_scanf(i8* getelementptr inbounds ([5 x i8], [5 x i8]* @.str, i64 0, i64 0), i32* %1, i32* %2)
  %7 = load i32, i32* %5, align 4
  %8 = load i32, i32* %1, align 4
  %9 = mul nsw i32 %7, %8
  %10 = load i32, i32* %2, align 4
  %11 = add nsw i32 %9, %10
  store i32 %11, i32* %3, align 4
  br label %12

12:                                               ; preds = %38, %0
  %13 = load i32, i32* %3, align 4
  %14 = load i32, i32* %1, align 4
  %15 = sub nsw i32 %14, 1
  %16 = srem i32 %13, %15
  %17 = icmp eq i32 %16, 0
  br i1 %17, label %18, label %29

18:                                               ; preds = %12
  %19 = load i32, i32* %3, align 4
  %20 = load i32, i32* %1, align 4
  %21 = mul nsw i32 %19, %20
  %22 = load i32, i32* %1, align 4
  %23 = sub nsw i32 %22, 1
  %24 = sdiv i32 %21, %23
  %25 = load i32, i32* %2, align 4
  %26 = add nsw i32 %24, %25
  store i32 %26, i32* %3, align 4
  %27 = load i32, i32* %4, align 4
  %28 = add nsw i32 %27, 1
  store i32 %28, i32* %4, align 4
  br label %37

29:                                               ; preds = %12
  %30 = load i32, i32* %5, align 4
  %31 = add nsw i32 %30, 1
  store i32 %31, i32* %5, align 4
  %32 = load i32, i32* %5, align 4
  %33 = load i32, i32* %1, align 4
  %34 = mul nsw i32 %32, %33
  %35 = load i32, i32* %2, align 4
  %36 = add nsw i32 %34, %35
  store i32 %36, i32* %3, align 4
  store i32 1, i32* %4, align 4
  br label %37

37:                                               ; preds = %29, %18
  br label %38

38:                                               ; preds = %37
  %39 = load i32, i32* %4, align 4
  %40 = load i32, i32* %1, align 4
  %41 = sub nsw i32 %40, 1
  %42 = icmp sle i32 %39, %41
  br i1 %42, label %12, label %43

43:                                               ; preds = %38
  %44 = load i32, i32* %3, align 4
  %45 = call i32 (i8*, ...) @printf(i8* getelementptr inbounds ([4 x i8], [4 x i8]* @.str.1, i64 0, i64 0), i32 %44)
  ret void
}

declare dso_local i32 @__isoc99_scanf(i8*, ...) #1

declare dso_local i32 @printf(i8*, ...) #1


!llvm.module.flags = !{!0}
!llvm.ident = !{!1}

!0 = !{i32 1, !"wchar_size", i32 4}
!1 = !{!"clang version 10.0.0-4ubuntu1 "}
